target datalayout = "e-m:e-p270:32:32-p271:32:32-p272:64:64-i64:64-i128:128-f80:128-n8:16:32:64-S128"
target triple = "x86_64-pc-linux-gnu"

%struct.FFPsyModel = type { ptr, ptr, ptr, ptr, ptr }
%struct.FFPsyContext = type { ptr, ptr, ptr, ptr, i32, i32, ptr, ptr, i32, %struct.anon, ptr }
%struct.anon = type { i32, i32, i32 }

; Function Attrs: cold nounwind optsize uwtable
define void @ff_psy_end(ptr noundef %0) #0 {
  %2 = alloca ptr, align 8
  store ptr %0, ptr %2, align 8, !tbaa !4
  %3 = load ptr, ptr %2, align 8, !tbaa !4
  %4 = getelementptr inbounds nuw %struct.FFPsyContext, ptr %3, i32 0, i32 1
  %5 = load ptr, ptr %4, align 8, !tbaa !56
  %6 = icmp ne ptr %5, null
  br i1 %6, label %7, label %21

7:                                                ; preds = %1
  %8 = load ptr, ptr %2, align 8, !tbaa !4
  %9 = getelementptr inbounds nuw %struct.FFPsyContext, ptr %8, i32 0, i32 1
  %10 = load ptr, ptr %9, align 8, !tbaa !56
  %11 = getelementptr inbounds nuw %struct.FFPsyModel, ptr %10, i32 0, i32 4
  %12 = load ptr, ptr %11, align 8, !tbaa !59
  %13 = icmp ne ptr %12, null
  br i1 %13, label %14, label %21

14:                                               ; preds = %7
  %15 = load ptr, ptr %2, align 8, !tbaa !4
  %16 = getelementptr inbounds nuw %struct.FFPsyContext, ptr %15, i32 0, i32 1
  %17 = load ptr, ptr %16, align 8, !tbaa !56
  %18 = getelementptr inbounds nuw %struct.FFPsyModel, ptr %17, i32 0, i32 4
  %19 = load ptr, ptr %18, align 8, !tbaa !59
  %20 = load ptr, ptr %2, align 8, !tbaa !4
  call void %19(ptr noundef %20)
  br label %21

21:                                               ; preds = %14, %7, %1
  %22 = load ptr, ptr %2, align 8, !tbaa !4
  %23 = getelementptr inbounds nuw %struct.FFPsyContext, ptr %22, i32 0, i32 6
  call void @av_freep(ptr noundef %23)
  %24 = load ptr, ptr %2, align 8, !tbaa !4
  %25 = getelementptr inbounds nuw %struct.FFPsyContext, ptr %24, i32 0, i32 7
  call void @av_freep(ptr noundef %25)
  %26 = load ptr, ptr %2, align 8, !tbaa !4
  %27 = getelementptr inbounds nuw %struct.FFPsyContext, ptr %26, i32 0, i32 3
  call void @av_freep(ptr noundef %27)
  %28 = load ptr, ptr %2, align 8, !tbaa !4
  %29 = getelementptr inbounds nuw %struct.FFPsyContext, ptr %28, i32 0, i32 2
  call void @av_freep(ptr noundef %29)
  ret void
}