; Function Attrs: cold nounwind optsize uwtable
define void @ff_psy_end(ptr noundef %0) local_unnamed_addr #0 {
  %2 = getelementptr inbounds nuw i8, ptr %0, i64 8
  %3 = load ptr, ptr %2, align 8, !tbaa !49
  %.not = icmp eq ptr %3, null
  br i1 %.not, label %8, label %4

4:                                                ; preds = %1
  %5 = getelementptr inbounds nuw i8, ptr %3, i64 32
  %6 = load ptr, ptr %5, align 8, !tbaa !52
  %.not9 = icmp eq ptr %6, null
  br i1 %.not9, label %8, label %7

7:                                                ; preds = %4
  tail call void %6(ptr noundef nonnull %0) #5
  br label %8

8:                                                ; preds = %7, %4, %1
  %9 = getelementptr inbounds nuw i8, ptr %0, i64 40
  tail call void @av_freep(ptr noundef nonnull %9) #5
  %10 = getelementptr inbounds nuw i8, ptr %0, i64 48
  tail call void @av_freep(ptr noundef nonnull %10) #5
  %11 = getelementptr inbounds nuw i8, ptr %0, i64 24
  tail call void @av_freep(ptr noundef nonnull %11) #5
  %12 = getelementptr inbounds nuw i8, ptr %0, i64 16
  tail call void @av_freep(ptr noundef nonnull %12) #5
  ret void
}